; Function Attrs: nofree norecurse nosync nounwind memory(read, inaccessiblemem: none) uwtable
define dso_local ptr @get_bloom_filter_settings(ptr noundef readonly captures(none) %0) local_unnamed_addr #11 {
  %2 = getelementptr inbounds nuw i8, ptr %0, i64 16
  %3 = load ptr, ptr %2, align 8, !tbaa !9
  %4 = getelementptr inbounds nuw i8, ptr %3, i64 96
  %.09 = load ptr, ptr %4, align 8, !tbaa !128
  %.not10 = icmp eq ptr %.09, null
  br i1 %.not10, label %._crit_edge, label %.lr.ph

5:                                                ; preds = %.lr.ph
  %6 = getelementptr inbounds nuw i8, ptr %.011, i64 88
  %.0 = load ptr, ptr %6, align 8, !tbaa !128
  %.not = icmp eq ptr %.0, null
  br i1 %.not, label %._crit_edge, label %.lr.ph, !llvm.loop !129

.lr.ph:                                           ; preds = %1, %5
  %.011 = phi ptr [ %.0, %5 ], [ %.09, %1 ]
  %7 = getelementptr inbounds nuw i8, ptr %.011, i64 208
  %8 = load ptr, ptr %7, align 8, !tbaa !91
  %.not8 = icmp eq ptr %8, null
  br i1 %.not8, label %5, label %._crit_edge

._crit_edge:                                      ; preds = %.lr.ph, %5, %1
  %.06 = phi ptr [ null, %1 ], [ null, %5 ], [ %8, %.lr.ph ]
  ret ptr %.06
}